target datalayout = "e-m:e-p270:32:32-p271:32:32-p272:64:64-i64:64-i128:128-f80:128-n8:16:32:64-S128"
target triple = "x86_64-pc-linux-gnu"

%struct.pmix_class_t = type { ptr, ptr, ptr, ptr, i32, i32, ptr, ptr, i64 }
%struct.pmix_tma = type { ptr, ptr, ptr, ptr, ptr, ptr, ptr, ptr }
%union.pthread_mutex_t = type { %struct.__pthread_mutex_s }
%struct.__pthread_mutex_s = type { i32, i32, i32, i32, i32, i16, i16, %struct.__pthread_internal_list }
%struct.__pthread_internal_list = type { ptr, ptr }
%union.pthread_cond_t = type { %struct.__pthread_cond_s }
%struct.__pthread_cond_s = type { %union.__atomic_wide_counter, %union.__atomic_wide_counter, [2 x i32], [2 x i32], i32, i32, [2 x i32] }
%union.__atomic_wide_counter = type { i64 }
%struct.pmix_object_t = type { %union.pthread_mutex_t, ptr, i32, %struct.pmix_tma }
%struct.timeval = type { i64, i64 }
%struct.pmix_list_t = type { %struct.pmix_object_t, %struct.pmix_list_item_t, i64 }
%struct.pmix_list_item_t = type { %struct.pmix_object_t, ptr, ptr, i32 }
%struct.pmix_name_t = type { ptr, i32 }
%struct.event = type { %struct.event_callback, %union.anon.3, i32, ptr, %union.anon.5, i16, i16, %struct.timeval }
%struct.event_callback = type { %struct.anon.1, i16, i8, i8, %union.anon.2, ptr }
%struct.anon.1 = type { ptr, ptr }
%union.anon.2 = type { ptr }
%union.anon.3 = type { %struct.anon.4 }
%struct.anon.4 = type { ptr, ptr }
%union.anon.5 = type { %struct.anon.6 }
%struct.anon.6 = type { %struct.anon.7, %struct.timeval }
%struct.anon.7 = type { ptr, ptr }
%struct.pmix_lock_t = type { i32, %struct.pmix_mutex_t, %union.pthread_cond_t, i8 }
%struct.pmix_mutex_t = type { %struct.pmix_object_t, %union.pthread_mutex_t }
%struct.pmix_cb_t = type { %struct.pmix_list_item_t, %struct.event, %struct.pmix_lock_t, i8, i32, i32, i8, %struct.pmix_buffer_t, %union.anon.11, i64, ptr, %struct.pmix_name_t, ptr, ptr, ptr, ptr, i64, ptr, i64, ptr, i8, i64, %struct.pmix_list_t, i8, ptr, i8, ptr, ptr }
%struct.pmix_buffer_t = type { %struct.pmix_object_t, i8, ptr, ptr, ptr, i64, i64 }
%union.anon.11 = type { ptr }

@.str.25 = private unnamed_addr constant [21 x i8] c"pthread_mutex_lock()\00", align 1

; Function Attrs: inlinehint nounwind uwtable
define internal void @pmix_tma_free(ptr noundef %0, ptr noundef %1) #2 {
  %3 = alloca ptr, align 8
  %4 = alloca ptr, align 8
  store ptr %0, ptr %3, align 8, !tbaa !58
  store ptr %1, ptr %4, align 8, !tbaa !3
  %5 = load ptr, ptr %3, align 8, !tbaa !58
  %6 = icmp ne ptr null, %5
  br i1 %6, label %7, label %13

7:                                                ; preds = %2
  %8 = load ptr, ptr %3, align 8, !tbaa !58
  %9 = getelementptr inbounds nuw %struct.pmix_tma, ptr %8, i32 0, i32 5
  %10 = load ptr, ptr %9, align 8, !tbaa !254
  %11 = load ptr, ptr %3, align 8, !tbaa !58
  %12 = load ptr, ptr %4, align 8, !tbaa !3
  call void %10(ptr noundef %11, ptr noundef %12)
  br label %15

13:                                               ; preds = %2
  %14 = load ptr, ptr %4, align 8, !tbaa !3
  call void @free(ptr noundef %14) #13
  br label %15

15:                                               ; preds = %13, %7
  ret void
}

; Function Attrs: alwaysinline nounwind uwtable
define internal i32 @pmix_obj_update(ptr noundef %0, i32 noundef %1) #7 {
  %3 = alloca ptr, align 8
  %4 = alloca i32, align 4
  %5 = alloca i32, align 4
  store ptr %0, ptr %3, align 8, !tbaa !20
  store i32 %1, ptr %4, align 4, !tbaa !7
  call void @llvm.lifetime.start.p0(i64 4, ptr %5) #13
  %6 = load ptr, ptr %3, align 8, !tbaa !20
  %7 = getelementptr inbounds nuw %struct.pmix_object_t, ptr %6, i32 0, i32 0
  %8 = call i32 @pthread_mutex_lock(ptr noundef %7) #13
  store i32 %8, ptr %5, align 4, !tbaa !7
  %9 = load i32, ptr %5, align 4, !tbaa !7
  %10 = icmp eq i32 %9, 35
  br i1 %10, label %11, label %14

11:                                               ; preds = %2
  %12 = load i32, ptr %5, align 4, !tbaa !7
  %13 = call ptr @__errno_location() #15
  store i32 %12, ptr %13, align 4, !tbaa !7
  call void @perror(ptr noundef @.str.25)
  call void @abort() #16
  unreachable

14:                                               ; preds = %2
  %15 = load i32, ptr %4, align 4, !tbaa !7
  %16 = load ptr, ptr %3, align 8, !tbaa !20
  %17 = getelementptr inbounds nuw %struct.pmix_object_t, ptr %16, i32 0, i32 2
  %18 = load i32, ptr %17, align 8, !tbaa !17
  %19 = add nsw i32 %18, %15
  store i32 %19, ptr %17, align 8, !tbaa !17
  store i32 %19, ptr %5, align 4, !tbaa !7
  %20 = load ptr, ptr %3, align 8, !tbaa !20
  %21 = getelementptr inbounds nuw %struct.pmix_object_t, ptr %20, i32 0, i32 0
  %22 = call i32 @pthread_mutex_unlock(ptr noundef %21) #13
  %23 = load i32, ptr %5, align 4, !tbaa !7
  call void @llvm.lifetime.end.p0(i64 4, ptr %5) #13
  ret i32 %23
}

; Function Attrs: inlinehint nounwind uwtable
define internal ptr @pmix_list_remove_first(ptr noundef %0) #2 {
  %2 = alloca ptr, align 8
  %3 = alloca ptr, align 8
  %4 = alloca ptr, align 8
  %5 = alloca i32, align 4
  store ptr %0, ptr %3, align 8, !tbaa !279
  call void @llvm.lifetime.start.p0(i64 8, ptr %4) #13
  %6 = load ptr, ptr %3, align 8, !tbaa !279
  %7 = getelementptr inbounds nuw %struct.pmix_list_t, ptr %6, i32 0, i32 2
  %8 = load volatile i64, ptr %7, align 8, !tbaa !282
  %9 = icmp eq i64 0, %8
  br i1 %9, label %10, label %11

10:                                               ; preds = %1
  store ptr null, ptr %2, align 8
  store i32 1, ptr %5, align 4
  br label %34

11:                                               ; preds = %1
  %12 = load ptr, ptr %3, align 8, !tbaa !279
  %13 = getelementptr inbounds nuw %struct.pmix_list_t, ptr %12, i32 0, i32 2
  %14 = load volatile i64, ptr %13, align 8, !tbaa !282
  %15 = add i64 %14, -1
  store volatile i64 %15, ptr %13, align 8, !tbaa !282
  %16 = load ptr, ptr %3, align 8, !tbaa !279
  %17 = getelementptr inbounds nuw %struct.pmix_list_t, ptr %16, i32 0, i32 1
  %18 = getelementptr inbounds nuw %struct.pmix_list_item_t, ptr %17, i32 0, i32 1
  %19 = load ptr, ptr %18, align 8, !tbaa !305
  store ptr %19, ptr %4, align 8, !tbaa !18
  %20 = load ptr, ptr %4, align 8, !tbaa !18
  %21 = getelementptr inbounds nuw %struct.pmix_list_item_t, ptr %20, i32 0, i32 2
  %22 = load volatile ptr, ptr %21, align 8, !tbaa !281
  %23 = load ptr, ptr %4, align 8, !tbaa !18
  %24 = getelementptr inbounds nuw %struct.pmix_list_item_t, ptr %23, i32 0, i32 1
  %25 = load volatile ptr, ptr %24, align 8, !tbaa !262
  %26 = getelementptr inbounds nuw %struct.pmix_list_item_t, ptr %25, i32 0, i32 2
  store volatile ptr %22, ptr %26, align 8, !tbaa !281
  %27 = load ptr, ptr %4, align 8, !tbaa !18
  %28 = getelementptr inbounds nuw %struct.pmix_list_item_t, ptr %27, i32 0, i32 1
  %29 = load volatile ptr, ptr %28, align 8, !tbaa !262
  %30 = load ptr, ptr %3, align 8, !tbaa !279
  %31 = getelementptr inbounds nuw %struct.pmix_list_t, ptr %30, i32 0, i32 1
  %32 = getelementptr inbounds nuw %struct.pmix_list_item_t, ptr %31, i32 0, i32 1
  store ptr %29, ptr %32, align 8, !tbaa !305
  %33 = load ptr, ptr %4, align 8, !tbaa !18
  store ptr %33, ptr %2, align 8
  store i32 1, ptr %5, align 4
  br label %34

34:                                               ; preds = %11, %10
  call void @llvm.lifetime.end.p0(i64 8, ptr %4) #13
  %35 = load ptr, ptr %2, align 8
  ret ptr %35
}

; Function Attrs: inlinehint nounwind uwtable
define internal void @pmix_obj_run_destructors(ptr noundef %0) #2 {
  %2 = alloca ptr, align 8
  %3 = alloca ptr, align 8
  store ptr %0, ptr %2, align 8, !tbaa !20
  call void @llvm.lifetime.start.p0(i64 8, ptr %3) #13
  %4 = load ptr, ptr %2, align 8, !tbaa !20
  %5 = getelementptr inbounds nuw %struct.pmix_object_t, ptr %4, i32 0, i32 1
  %6 = load ptr, ptr %5, align 8, !tbaa !14
  %7 = getelementptr inbounds nuw %struct.pmix_class_t, ptr %6, i32 0, i32 7
  %8 = load ptr, ptr %7, align 8, !tbaa !283
  store ptr %8, ptr %3, align 8, !tbaa !3
  br label %9

9:                                                ; preds = %13, %1
  %10 = load ptr, ptr %3, align 8, !tbaa !3
  %11 = load ptr, ptr %10, align 8, !tbaa !3
  %12 = icmp ne ptr null, %11
  br i1 %12, label %13, label %19

13:                                               ; preds = %9
  %14 = load ptr, ptr %3, align 8, !tbaa !3
  %15 = load ptr, ptr %14, align 8, !tbaa !3
  %16 = load ptr, ptr %2, align 8, !tbaa !20
  call void %15(ptr noundef %16)
  %17 = load ptr, ptr %3, align 8, !tbaa !3
  %18 = getelementptr inbounds nuw ptr, ptr %17, i32 1
  store ptr %18, ptr %3, align 8, !tbaa !3
  br label %9, !llvm.loop !284

19:                                               ; preds = %9
  call void @llvm.lifetime.end.p0(i64 8, ptr %3) #13
  ret void
}

; Function Attrs: nounwind uwtable
define internal void @cbdes(ptr noundef %0) #0 {
  %2 = alloca ptr, align 8
  %3 = alloca ptr, align 8
  %4 = alloca ptr, align 8
  store ptr %0, ptr %2, align 8, !tbaa !3
  %5 = load ptr, ptr %2, align 8, !tbaa !3
  %6 = getelementptr inbounds nuw %struct.pmix_cb_t, ptr %5, i32 0, i32 25
  %7 = load i8, ptr %6, align 8, !tbaa !202, !range !113, !noundef !114
  %8 = trunc i8 %7 to i1
  br i1 %8, label %9, label %13

9:                                                ; preds = %1
  %10 = load ptr, ptr %2, align 8, !tbaa !3
  %11 = getelementptr inbounds nuw %struct.pmix_cb_t, ptr %10, i32 0, i32 1
  %12 = call i32 @event_del(ptr noundef %11)
  br label %13

13:                                               ; preds = %9, %1
  %14 = load ptr, ptr %2, align 8, !tbaa !3
  %15 = getelementptr inbounds nuw %struct.pmix_cb_t, ptr %14, i32 0, i32 11
  %16 = getelementptr inbounds nuw %struct.pmix_name_t, ptr %15, i32 0, i32 0
  %17 = load ptr, ptr %16, align 8, !tbaa !188
  %18 = icmp ne ptr null, %17
  br i1 %18, label %19, label %24

19:                                               ; preds = %13
  %20 = load ptr, ptr %2, align 8, !tbaa !3
  %21 = getelementptr inbounds nuw %struct.pmix_cb_t, ptr %20, i32 0, i32 11
  %22 = getelementptr inbounds nuw %struct.pmix_name_t, ptr %21, i32 0, i32 0
  %23 = load ptr, ptr %22, align 8, !tbaa !188
  call void @free(ptr noundef %23) #13
  br label %24

24:                                               ; preds = %19, %13
  br label %25

25:                                               ; preds = %24
  %26 = load ptr, ptr %2, align 8, !tbaa !3
  %27 = getelementptr inbounds nuw %struct.pmix_cb_t, ptr %26, i32 0, i32 7
  call void @pmix_obj_run_destructors(ptr noundef %27)
  br label %28

28:                                               ; preds = %25
  %29 = load ptr, ptr %2, align 8, !tbaa !3
  %30 = getelementptr inbounds nuw %struct.pmix_cb_t, ptr %29, i32 0, i32 20
  %31 = load i8, ptr %30, align 8, !tbaa !198, !range !113, !noundef !114
  %32 = trunc i8 %31 to i1
  br i1 %32, label %33, label %44

33:                                               ; preds = %28
  br label %34

34:                                               ; preds = %33
  %35 = load ptr, ptr %2, align 8, !tbaa !3
  %36 = getelementptr inbounds nuw %struct.pmix_cb_t, ptr %35, i32 0, i32 17
  %37 = load ptr, ptr %36, align 8, !tbaa !195
  %38 = load ptr, ptr %2, align 8, !tbaa !3
  %39 = getelementptr inbounds nuw %struct.pmix_cb_t, ptr %38, i32 0, i32 18
  %40 = load i64, ptr %39, align 8, !tbaa !196
  call void @PMIx_Info_free(ptr noundef %37, i64 noundef %40)
  %41 = load ptr, ptr %2, align 8, !tbaa !3
  %42 = getelementptr inbounds nuw %struct.pmix_cb_t, ptr %41, i32 0, i32 17
  store ptr null, ptr %42, align 8, !tbaa !195
  br label %43

43:                                               ; preds = %34
  br label %44

44:                                               ; preds = %43, %28
  %45 = load ptr, ptr %2, align 8, !tbaa !3
  %46 = getelementptr inbounds nuw %struct.pmix_cb_t, ptr %45, i32 0, i32 19
  %47 = load ptr, ptr %46, align 8, !tbaa !197
  %48 = icmp ne ptr null, %47
  br i1 %48, label %49, label %60

49:                                               ; preds = %44
  br label %50

50:                                               ; preds = %49
  %51 = load ptr, ptr %2, align 8, !tbaa !3
  %52 = getelementptr inbounds nuw %struct.pmix_cb_t, ptr %51, i32 0, i32 19
  %53 = load ptr, ptr %52, align 8, !tbaa !197
  %54 = load ptr, ptr %2, align 8, !tbaa !3
  %55 = getelementptr inbounds nuw %struct.pmix_cb_t, ptr %54, i32 0, i32 21
  %56 = load i64, ptr %55, align 8, !tbaa !199
  call void @PMIx_Device_distance_free(ptr noundef %53, i64 noundef %56)
  %57 = load ptr, ptr %2, align 8, !tbaa !3
  %58 = getelementptr inbounds nuw %struct.pmix_cb_t, ptr %57, i32 0, i32 19
  store ptr null, ptr %58, align 8, !tbaa !197
  br label %59

59:                                               ; preds = %50
  br label %60

60:                                               ; preds = %59, %44
  br label %61

61:                                               ; preds = %60
  call void @llvm.lifetime.start.p0(i64 8, ptr %3) #13
  br label %62

62:                                               ; preds = %89, %61
  %63 = load ptr, ptr %2, align 8, !tbaa !3
  %64 = getelementptr inbounds nuw %struct.pmix_cb_t, ptr %63, i32 0, i32 22
  %65 = call ptr @pmix_list_remove_first(ptr noundef %64)
  store ptr %65, ptr %3, align 8, !tbaa !18
  %66 = icmp ne ptr null, %65
  br i1 %66, label %67, label %90

67:                                               ; preds = %62
  br label %68

68:                                               ; preds = %67
  call void @llvm.lifetime.start.p0(i64 8, ptr %4) #13
  %69 = load ptr, ptr %3, align 8, !tbaa !18
  store ptr %69, ptr %4, align 8, !tbaa !20
  %70 = load ptr, ptr %4, align 8, !tbaa !20
  %71 = call i32 @pmix_obj_update(ptr noundef %70, i32 noundef -1)
  %72 = icmp eq i32 0, %71
  br i1 %72, label %73, label %87

73:                                               ; preds = %68
  %74 = load ptr, ptr %4, align 8, !tbaa !20
  call void @pmix_obj_run_destructors(ptr noundef %74)
  %75 = load ptr, ptr %4, align 8, !tbaa !20
  %76 = getelementptr inbounds nuw %struct.pmix_object_t, ptr %75, i32 0, i32 3
  %77 = getelementptr inbounds nuw %struct.pmix_tma, ptr %76, i32 0, i32 5
  %78 = load ptr, ptr %77, align 8, !tbaa !22
  %79 = icmp ne ptr null, %78
  br i1 %79, label %80, label %84

80:                                               ; preds = %73
  %81 = load ptr, ptr %4, align 8, !tbaa !20
  %82 = getelementptr inbounds nuw %struct.pmix_object_t, ptr %81, i32 0, i32 3
  %83 = load ptr, ptr %3, align 8, !tbaa !18
  call void @pmix_tma_free(ptr noundef %82, ptr noundef %83)
  br label %86

84:                                               ; preds = %73
  %85 = load ptr, ptr %3, align 8, !tbaa !18
  call void @free(ptr noundef %85) #13
  br label %86

86:                                               ; preds = %84, %80
  store ptr null, ptr %3, align 8, !tbaa !18
  br label %87

87:                                               ; preds = %86, %68
  call void @llvm.lifetime.end.p0(i64 8, ptr %4) #13
  br label %88

88:                                               ; preds = %87
  br label %89

89:                                               ; preds = %88
  br label %62, !llvm.loop !205

90:                                               ; preds = %62
  br label %91

91:                                               ; preds = %90
  %92 = load ptr, ptr %2, align 8, !tbaa !3
  %93 = getelementptr inbounds nuw %struct.pmix_cb_t, ptr %92, i32 0, i32 22
  call void @pmix_obj_run_destructors(ptr noundef %93)
  br label %94

94:                                               ; preds = %91
  br label %95

95:                                               ; preds = %94
  call void @llvm.lifetime.end.p0(i64 8, ptr %3) #13
  br label %96

96:                                               ; preds = %95
  ret void
}