; Function Attrs: nounwind uwtable
define internal void @cbdes(ptr noundef %0) #0 {
  %2 = getelementptr inbounds nuw i8, ptr %0, i64 1088
  %3 = load i8, ptr %2, align 8, !tbaa !164, !range !115, !noundef !116
  %4 = trunc nuw i8 %3 to i1
  br i1 %4, label %5, label %8

5:                                                ; preds = %1
  %6 = getelementptr inbounds nuw i8, ptr %0, i64 144
  %7 = tail call i32 @event_del(ptr noundef nonnull %6) #15
  br label %8

8:                                                ; preds = %5, %1
  %9 = getelementptr inbounds nuw i8, ptr %0, i64 704
  %10 = load ptr, ptr %9, align 8, !tbaa !165
  %.not = icmp eq ptr %10, null
  br i1 %.not, label %12, label %11

11:                                               ; preds = %8
  tail call void @free(ptr noundef nonnull %10) #15
  br label %12

12:                                               ; preds = %8, %11
  %13 = getelementptr inbounds nuw i8, ptr %0, i64 512
  %14 = getelementptr inbounds nuw i8, ptr %0, i64 552
  %15 = load ptr, ptr %14, align 8, !tbaa !13
  %16 = getelementptr inbounds nuw i8, ptr %15, i64 48
  %17 = load ptr, ptr %16, align 8, !tbaa !28
  %18 = load ptr, ptr %17, align 8, !tbaa !18
  %.not6.i = icmp eq ptr %18, null
  br i1 %.not6.i, label %pmix_obj_run_destructors.exit, label %.lr.ph.i

.lr.ph.i:                                         ; preds = %12, %.lr.ph.i
  %19 = phi ptr [ %21, %.lr.ph.i ], [ %18, %12 ]
  %.07.i = phi ptr [ %20, %.lr.ph.i ], [ %17, %12 ]
  tail call void %19(ptr noundef nonnull %13) #15
  %20 = getelementptr inbounds nuw i8, ptr %.07.i, i64 8
  %21 = load ptr, ptr %20, align 8, !tbaa !18
  %.not.i = icmp eq ptr %21, null
  br i1 %.not.i, label %pmix_obj_run_destructors.exit, label %.lr.ph.i, !llvm.loop !29

pmix_obj_run_destructors.exit:                    ; preds = %.lr.ph.i, %12
  %22 = getelementptr inbounds nuw i8, ptr %0, i64 784
  %23 = load i8, ptr %22, align 8, !tbaa !166, !range !115, !noundef !116
  %24 = trunc nuw i8 %23 to i1
  br i1 %24, label %25, label %30

25:                                               ; preds = %pmix_obj_run_destructors.exit
  %26 = getelementptr inbounds nuw i8, ptr %0, i64 760
  %27 = load ptr, ptr %26, align 8, !tbaa !167
  %28 = getelementptr inbounds nuw i8, ptr %0, i64 768
  %29 = load i64, ptr %28, align 8, !tbaa !168
  tail call void @PMIx_Info_free(ptr noundef %27, i64 noundef %29) #15
  store ptr null, ptr %26, align 8, !tbaa !167
  br label %30

30:                                               ; preds = %25, %pmix_obj_run_destructors.exit
  %31 = getelementptr inbounds nuw i8, ptr %0, i64 776
  %32 = load ptr, ptr %31, align 8, !tbaa !169
  %.not24 = icmp eq ptr %32, null
  br i1 %.not24, label %36, label %33

33:                                               ; preds = %30
  %34 = getelementptr inbounds nuw i8, ptr %0, i64 792
  %35 = load i64, ptr %34, align 8, !tbaa !161
  tail call void @PMIx_Device_distance_free(ptr noundef nonnull %32, i64 noundef %35) #15
  store ptr null, ptr %31, align 8, !tbaa !169
  br label %36

36:                                               ; preds = %30, %33
  %37 = getelementptr inbounds nuw i8, ptr %0, i64 1064
  %38 = load volatile i64, ptr %37, align 8, !tbaa !21
  %39 = icmp eq i64 %38, 0
  br i1 %39, label %._crit_edge, label %.lr.ph

.lr.ph:                                           ; preds = %36
  %40 = getelementptr inbounds nuw i8, ptr %0, i64 1040
  br label %41

41:                                               ; preds = %.lr.ph, %74
  %42 = load volatile i64, ptr %37, align 8, !tbaa !21
  %43 = add i64 %42, -1
  store volatile i64 %43, ptr %37, align 8, !tbaa !21
  %44 = load ptr, ptr %40, align 8, !tbaa !25
  %45 = getelementptr inbounds nuw i8, ptr %44, i64 128
  %46 = load volatile ptr, ptr %45, align 8, !tbaa !26
  %47 = getelementptr inbounds nuw i8, ptr %44, i64 120
  %48 = load volatile ptr, ptr %47, align 8, !tbaa !27
  %49 = getelementptr inbounds nuw i8, ptr %48, i64 128
  store volatile ptr %46, ptr %49, align 8, !tbaa !26
  %50 = load volatile ptr, ptr %47, align 8, !tbaa !27
  store ptr %50, ptr %40, align 8, !tbaa !25
  %51 = tail call i32 @pthread_mutex_lock(ptr noundef nonnull %44) #15
  %52 = icmp eq i32 %51, 35
  br i1 %52, label %53, label %pmix_obj_update.exit

53:                                               ; preds = %41
  %54 = tail call ptr @__errno_location() #16
  store i32 35, ptr %54, align 4, !tbaa !3
  tail call void @perror(ptr noundef nonnull @.str.25) #17
  tail call void @abort() #18
  unreachable

pmix_obj_update.exit:                             ; preds = %41
  %55 = getelementptr inbounds nuw i8, ptr %44, i64 48
  %56 = load i32, ptr %55, align 8, !tbaa !16
  %57 = add nsw i32 %56, -1
  store i32 %57, ptr %55, align 8, !tbaa !16
  %58 = tail call i32 @pthread_mutex_unlock(ptr noundef nonnull %44) #15
  %59 = icmp eq i32 %57, 0
  br i1 %59, label %60, label %74

60:                                               ; preds = %pmix_obj_update.exit
  %61 = getelementptr inbounds nuw i8, ptr %44, i64 40
  %62 = load ptr, ptr %61, align 8, !tbaa !13
  %63 = getelementptr inbounds nuw i8, ptr %62, i64 48
  %64 = load ptr, ptr %63, align 8, !tbaa !28
  %65 = load ptr, ptr %64, align 8, !tbaa !18
  %.not6.i27 = icmp eq ptr %65, null
  br i1 %.not6.i27, label %pmix_obj_run_destructors.exit31, label %.lr.ph.i28

.lr.ph.i28:                                       ; preds = %60, %.lr.ph.i28
  %66 = phi ptr [ %68, %.lr.ph.i28 ], [ %65, %60 ]
  %.07.i29 = phi ptr [ %67, %.lr.ph.i28 ], [ %64, %60 ]
  tail call void %66(ptr noundef nonnull %44) #15
  %67 = getelementptr inbounds nuw i8, ptr %.07.i29, i64 8
  %68 = load ptr, ptr %67, align 8, !tbaa !18
  %.not.i30 = icmp eq ptr %68, null
  br i1 %.not.i30, label %pmix_obj_run_destructors.exit31, label %.lr.ph.i28, !llvm.loop !29

pmix_obj_run_destructors.exit31:                  ; preds = %.lr.ph.i28, %60
  %69 = getelementptr inbounds nuw i8, ptr %44, i64 96
  %70 = load ptr, ptr %69, align 8, !tbaa !30
  %.not26 = icmp eq ptr %70, null
  br i1 %.not26, label %73, label %71

71:                                               ; preds = %pmix_obj_run_destructors.exit31
  %72 = getelementptr inbounds nuw i8, ptr %44, i64 56
  tail call void %70(ptr noundef nonnull %72, ptr noundef nonnull %44) #15
  br label %74

73:                                               ; preds = %pmix_obj_run_destructors.exit31
  tail call void @free(ptr noundef nonnull %44) #15
  br label %74

74:                                               ; preds = %71, %73, %pmix_obj_update.exit
  %75 = load volatile i64, ptr %37, align 8, !tbaa !21
  %76 = icmp eq i64 %75, 0
  br i1 %76, label %._crit_edge, label %41, !llvm.loop !170

._crit_edge:                                      ; preds = %74, %36
  %77 = getelementptr inbounds nuw i8, ptr %0, i64 800
  %78 = getelementptr inbounds nuw i8, ptr %0, i64 840
  %79 = load ptr, ptr %78, align 8, !tbaa !13
  %80 = getelementptr inbounds nuw i8, ptr %79, i64 48
  %81 = load ptr, ptr %80, align 8, !tbaa !28
  %82 = load ptr, ptr %81, align 8, !tbaa !18
  %.not6.i33 = icmp eq ptr %82, null
  br i1 %.not6.i33, label %pmix_obj_run_destructors.exit37, label %.lr.ph.i34

.lr.ph.i34:                                       ; preds = %._crit_edge, %.lr.ph.i34
  %83 = phi ptr [ %85, %.lr.ph.i34 ], [ %82, %._crit_edge ]
  %.07.i35 = phi ptr [ %84, %.lr.ph.i34 ], [ %81, %._crit_edge ]
  tail call void %83(ptr noundef nonnull %77) #15
  %84 = getelementptr inbounds nuw i8, ptr %.07.i35, i64 8
  %85 = load ptr, ptr %84, align 8, !tbaa !18
  %.not.i36 = icmp eq ptr %85, null
  br i1 %.not.i36, label %pmix_obj_run_destructors.exit37, label %.lr.ph.i34, !llvm.loop !29

pmix_obj_run_destructors.exit37:                  ; preds = %.lr.ph.i34, %._crit_edge
  ret void
}